; Function Attrs: mustprogress uwtable
define noalias noundef nonnull ptr @lean_io_prim_handle_mk(ptr noundef %0, i8 noundef zeroext %1, ptr noundef readnone captures(none) %2) local_unnamed_addr #0 {
  %switch.tableidx = add i8 %1, -1
  %4 = icmp ult i8 %switch.tableidx, 4
  br i1 %4, label %switch.lookup, label %6

switch.lookup:                                    ; preds = %3
  %5 = zext nneg i8 %switch.tableidx to i64
  %switch.gep = getelementptr inbounds nuw [4 x i32], ptr @switch.table.lean_io_prim_handle_mk, i64 0, i64 %5
  %switch.load = load i32, ptr %switch.gep, align 4
  br label %6

6:                                                ; preds = %switch.lookup, %3
  %.018 = phi i32 [ 524288, %3 ], [ %switch.load, %switch.lookup ]
  %7 = getelementptr inbounds nuw i8, ptr %0, i64 32
  %8 = tail call i32 (ptr, i32, ...) @open(ptr noundef nonnull %7, i32 noundef %.018, i32 noundef 438)
  %9 = icmp eq i32 %8, -1
  br i1 %9, label %10, label %17

10:                                               ; preds = %6
  %11 = tail call ptr @__errno_location() #30
  %12 = load i32, ptr %11, align 4, !tbaa !44
  %13 = tail call noundef ptr @lean_decode_io_error(i32 noundef %12, ptr noundef nonnull %0)
  tail call void @lean_inc_heartbeat()
  %14 = tail call noalias ptr @mi_malloc_small(i64 noundef 24) #27
  %15 = icmp eq ptr %14, null
  br i1 %15, label %16, label %_ZN4lean18io_result_mk_errorEP11lean_object.exit

16:                                               ; preds = %10
  tail call void @lean_internal_panic_out_of_memory() #28
  unreachable

17:                                               ; preds = %6
  %switch.tableidx30 = add i8 %1, -1
  %18 = icmp ult i8 %switch.tableidx30, 4
  br i1 %18, label %switch.lookup29, label %20

switch.lookup29:                                  ; preds = %17
  %19 = zext nneg i8 %switch.tableidx30 to i64
  %switch.gep31 = getelementptr inbounds nuw [4 x ptr], ptr @switch.table.lean_io_prim_handle_mk.13, i64 0, i64 %19
  %switch.load32 = load ptr, ptr %switch.gep31, align 8
  br label %20

20:                                               ; preds = %switch.lookup29, %17
  %.017 = phi ptr [ @.str.1, %17 ], [ %switch.load32, %switch.lookup29 ]
  %21 = tail call noalias ptr @fdopen(i32 noundef %8, ptr noundef nonnull %.017) #27
  %.not = icmp eq ptr %21, null
  br i1 %.not, label %22, label %29

22:                                               ; preds = %20
  %23 = tail call ptr @__errno_location() #30
  %24 = load i32, ptr %23, align 4, !tbaa !44
  %25 = tail call noundef ptr @lean_decode_io_error(i32 noundef %24, ptr noundef nonnull %0)
  tail call void @lean_inc_heartbeat()
  %26 = tail call noalias ptr @mi_malloc_small(i64 noundef 24) #27
  %27 = icmp eq ptr %26, null
  br i1 %27, label %28, label %_ZN4lean18io_result_mk_errorEP11lean_object.exit

28:                                               ; preds = %22
  tail call void @lean_internal_panic_out_of_memory() #28
  unreachable

29:                                               ; preds = %20
  %30 = load ptr, ptr @_ZN4leanL26g_io_handle_external_classE, align 8, !tbaa !3
  tail call void @lean_inc_heartbeat()
  %31 = tail call noalias ptr @mi_malloc_small(i64 noundef 24) #27
  %32 = icmp eq ptr %31, null
  br i1 %32, label %33, label %_ZN4lean14io_wrap_handleEP8_IO_FILE.exit

33:                                               ; preds = %29
  tail call void @lean_internal_panic_out_of_memory() #28
  unreachable

_ZN4lean14io_wrap_handleEP8_IO_FILE.exit:         ; preds = %29
  %34 = getelementptr inbounds nuw i8, ptr %31, i64 4
  store i32 1, ptr %31, align 4, !tbaa !7
  store i32 -33554408, ptr %34, align 4
  %35 = getelementptr inbounds nuw i8, ptr %31, i64 8
  store ptr %30, ptr %35, align 8, !tbaa !37
  %36 = getelementptr inbounds nuw i8, ptr %31, i64 16
  store ptr %21, ptr %36, align 8, !tbaa !39
  tail call void @lean_inc_heartbeat()
  %37 = tail call noalias ptr @mi_malloc_small(i64 noundef 24) #27
  %38 = icmp eq ptr %37, null
  br i1 %38, label %39, label %_ZN4lean18io_result_mk_errorEP11lean_object.exit

39:                                               ; preds = %_ZN4lean14io_wrap_handleEP8_IO_FILE.exit
  tail call void @lean_internal_panic_out_of_memory() #28
  unreachable

_ZN4lean18io_result_mk_errorEP11lean_object.exit: ; preds = %_ZN4lean14io_wrap_handleEP8_IO_FILE.exit, %22, %10
  %.sink28 = phi ptr [ %14, %10 ], [ %26, %22 ], [ %37, %_ZN4lean14io_wrap_handleEP8_IO_FILE.exit ]
  %.sink25 = phi i32 [ 16908312, %10 ], [ 16908312, %22 ], [ 131096, %_ZN4lean14io_wrap_handleEP8_IO_FILE.exit ]
  %.sink = phi ptr [ %13, %10 ], [ %25, %22 ], [ %31, %_ZN4lean14io_wrap_handleEP8_IO_FILE.exit ]
  %40 = getelementptr inbounds nuw i8, ptr %.sink28, i64 4
  store i32 1, ptr %.sink28, align 4, !tbaa !7
  store i32 %.sink25, ptr %40, align 4
  %41 = getelementptr inbounds nuw i8, ptr %.sink28, i64 8
  store ptr %.sink, ptr %41, align 8, !tbaa !3
  %42 = getelementptr inbounds nuw i8, ptr %.sink28, i64 16
  store ptr inttoptr (i64 1 to ptr), ptr %42, align 8, !tbaa !3
  ret ptr %.sink28
}